target datalayout = "e-m:e-p270:32:32-p271:32:32-p272:64:64-i64:64-i128:128-f80:128-n8:16:32:64-S128"
target triple = "x86_64-pc-linux-gnu"

%"class.cv::(anonymous namespace)::ufixedpoint16" = type { i16 }

; Function Attrs: inlinehint mustprogress nounwind uwtable
define linkonce_odr noundef nonnull align 4 dereferenceable(4) ptr @_ZSt3minIjERKT_S2_S2_(ptr noundef nonnull align 4 dereferenceable(4) %0, ptr noundef nonnull align 4 dereferenceable(4) %1) #9 comdat {
  %3 = alloca ptr, align 8
  %4 = alloca ptr, align 8
  %5 = alloca ptr, align 8
  store ptr %0, ptr %4, align 8, !tbaa !22
  store ptr %1, ptr %5, align 8, !tbaa !22
  %6 = load ptr, ptr %5, align 8, !tbaa !22
  %7 = load i32, ptr %6, align 4, !tbaa !10
  %8 = load ptr, ptr %4, align 8, !tbaa !22
  %9 = load i32, ptr %8, align 4, !tbaa !10
  %10 = icmp ult i32 %7, %9
  br i1 %10, label %11, label %13

11:                                               ; preds = %2
  %12 = load ptr, ptr %5, align 8, !tbaa !22
  store ptr %12, ptr %3, align 8
  br label %15

13:                                               ; preds = %2
  %14 = load ptr, ptr %4, align 8, !tbaa !22
  store ptr %14, ptr %3, align 8
  br label %15

15:                                               ; preds = %13, %11
  %16 = load ptr, ptr %3, align 8
  ret ptr %16
}

; Function Attrs: mustprogress nounwind uwtable
define internal void @_ZN2cv12_GLOBAL__N_113ufixedpoint16C2Et(ptr noundef nonnull align 2 dereferenceable(2) %0, i16 noundef zeroext %1) unnamed_addr #7 align 2 {
  %3 = alloca ptr, align 8
  %4 = alloca i16, align 2
  store ptr %0, ptr %3, align 8, !tbaa !204
  store i16 %1, ptr %4, align 2, !tbaa !236
  %5 = load ptr, ptr %3, align 8
  %6 = getelementptr inbounds nuw %"class.cv::(anonymous namespace)::ufixedpoint16", ptr %5, i32 0, i32 0
  %7 = load i16, ptr %4, align 2, !tbaa !236
  store i16 %7, ptr %6, align 2, !tbaa !230
  ret void
}

; Function Attrs: inlinehint mustprogress uwtable
define internal noundef zeroext i16 @_ZN2cvL13saturate_castItEET_j(i32 noundef %0) #8 {
  %2 = alloca i32, align 4
  %3 = alloca i32, align 4
  store i32 %0, ptr %2, align 4, !tbaa !10
  call void @llvm.lifetime.start.p0(i64 4, ptr %3) #3
  store i32 65535, ptr %3, align 4, !tbaa !10
  %4 = call noundef nonnull align 4 dereferenceable(4) ptr @_ZSt3minIjERKT_S2_S2_(ptr noundef nonnull align 4 dereferenceable(4) %2, ptr noundef nonnull align 4 dereferenceable(4) %3)
  %5 = load i32, ptr %4, align 4, !tbaa !10
  %6 = trunc i32 %5 to i16
  call void @llvm.lifetime.end.p0(i64 4, ptr %3) #3
  ret i16 %6
}

; Function Attrs: alwaysinline mustprogress nounwind uwtable
define internal noundef nonnull align 2 dereferenceable(2) ptr @_ZN2cv12_GLOBAL__N_113ufixedpoint16aSERKS1_(ptr noundef nonnull align 2 dereferenceable(2) %0, ptr noundef nonnull align 2 dereferenceable(2) %1) #17 align 2 {
  %3 = alloca ptr, align 8
  %4 = alloca ptr, align 8
  store ptr %0, ptr %3, align 8, !tbaa !204
  store ptr %1, ptr %4, align 8, !tbaa !204
  %5 = load ptr, ptr %3, align 8
  %6 = load ptr, ptr %4, align 8, !tbaa !204
  %7 = getelementptr inbounds nuw %"class.cv::(anonymous namespace)::ufixedpoint16", ptr %6, i32 0, i32 0
  %8 = load i16, ptr %7, align 2, !tbaa !230
  %9 = getelementptr inbounds nuw %"class.cv::(anonymous namespace)::ufixedpoint16", ptr %5, i32 0, i32 0
  store i16 %8, ptr %9, align 2, !tbaa !230
  ret ptr %5
}

; Function Attrs: alwaysinline mustprogress uwtable
define internal void @_ZNK2cv12_GLOBAL__N_113ufixedpoint16mlERKh(ptr dead_on_unwind noalias writable sret(%"class.cv::(anonymous namespace)::ufixedpoint16") align 2 %0, ptr noundef nonnull align 2 dereferenceable(2) %1, ptr noundef nonnull align 1 dereferenceable(1) %2) #19 align 2 {
  %4 = alloca ptr, align 8
  %5 = alloca ptr, align 8
  %6 = alloca ptr, align 8
  store ptr %0, ptr %4, align 8
  store ptr %1, ptr %5, align 8, !tbaa !204
  store ptr %2, ptr %6, align 8, !tbaa !82
  %7 = load ptr, ptr %5, align 8
  %8 = getelementptr inbounds nuw %"class.cv::(anonymous namespace)::ufixedpoint16", ptr %7, i32 0, i32 0
  %9 = load i16, ptr %8, align 2, !tbaa !230
  %10 = zext i16 %9 to i32
  %11 = load ptr, ptr %6, align 8, !tbaa !82
  %12 = load i8, ptr %11, align 1, !tbaa !42
  %13 = zext i8 %12 to i32
  %14 = mul i32 %10, %13
  %15 = call noundef zeroext i16 @_ZN2cvL13saturate_castItEET_j(i32 noundef %14)
  call void @_ZN2cv12_GLOBAL__N_113ufixedpoint16C2Et(ptr noundef nonnull align 2 dereferenceable(2) %0, i16 noundef zeroext %15)
  ret void
}

; Function Attrs: mustprogress uwtable
define internal void @_ZN2cv12cpu_baseline12_GLOBAL__N_113hlineSmooth1NIhNS_12_GLOBAL__N_113ufixedpoint16EEEvPKT_iPKT0_iPS8_ii(ptr noundef %0, i32 noundef %1, ptr noundef %2, i32 noundef %3, ptr noundef %4, i32 noundef %5, i32 noundef %6) #4 {
  %8 = alloca ptr, align 8
  %9 = alloca i32, align 4
  %10 = alloca ptr, align 8
  %11 = alloca i32, align 4
  %12 = alloca ptr, align 8
  %13 = alloca i32, align 4
  %14 = alloca i32, align 4
  %15 = alloca i32, align 4
  %16 = alloca i32, align 4
  %17 = alloca %"class.cv::(anonymous namespace)::ufixedpoint16", align 2
  store ptr %0, ptr %8, align 8, !tbaa !82
  store i32 %1, ptr %9, align 4, !tbaa !10
  store ptr %2, ptr %10, align 8, !tbaa !204
  store i32 %3, ptr %11, align 4, !tbaa !10
  store ptr %4, ptr %12, align 8, !tbaa !204
  store i32 %5, ptr %13, align 4, !tbaa !10
  store i32 %6, ptr %14, align 4, !tbaa !10
  call void @llvm.lifetime.start.p0(i64 4, ptr %15) #3
  %18 = load i32, ptr %13, align 4, !tbaa !10
  %19 = load i32, ptr %9, align 4, !tbaa !10
  %20 = mul nsw i32 %18, %19
  store i32 %20, ptr %15, align 4, !tbaa !10
  call void @llvm.lifetime.start.p0(i64 4, ptr %16) #3
  store i32 0, ptr %16, align 4, !tbaa !10
  br label %21

21:                                               ; preds = %37, %7
  %22 = load i32, ptr %16, align 4, !tbaa !10
  %23 = load i32, ptr %15, align 4, !tbaa !10
  %24 = icmp slt i32 %22, %23
  br i1 %24, label %25, label %40

25:                                               ; preds = %21
  call void @llvm.lifetime.start.p0(i64 2, ptr %17) #3
  %26 = load ptr, ptr %10, align 8, !tbaa !204
  %27 = getelementptr inbounds %"class.cv::(anonymous namespace)::ufixedpoint16", ptr %26, i64 0
  %28 = load ptr, ptr %8, align 8, !tbaa !82
  %29 = load i32, ptr %16, align 4, !tbaa !10
  %30 = sext i32 %29 to i64
  %31 = getelementptr inbounds i8, ptr %28, i64 %30
  call void @_ZNK2cv12_GLOBAL__N_113ufixedpoint16mlERKh(ptr dead_on_unwind writable sret(%"class.cv::(anonymous namespace)::ufixedpoint16") align 2 %17, ptr noundef nonnull align 2 dereferenceable(2) %27, ptr noundef nonnull align 1 dereferenceable(1) %31)
  %32 = load ptr, ptr %12, align 8, !tbaa !204
  %33 = load i32, ptr %16, align 4, !tbaa !10
  %34 = sext i32 %33 to i64
  %35 = getelementptr inbounds %"class.cv::(anonymous namespace)::ufixedpoint16", ptr %32, i64 %34
  %36 = call noundef nonnull align 2 dereferenceable(2) ptr @_ZN2cv12_GLOBAL__N_113ufixedpoint16aSERKS1_(ptr noundef nonnull align 2 dereferenceable(2) %35, ptr noundef nonnull align 2 dereferenceable(2) %17)
  call void @llvm.lifetime.end.p0(i64 2, ptr %17) #3
  br label %37

37:                                               ; preds = %25
  %38 = load i32, ptr %16, align 4, !tbaa !10
  %39 = add nsw i32 %38, 1
  store i32 %39, ptr %16, align 4, !tbaa !10
  br label %21, !llvm.loop !234

40:                                               ; preds = %21
  call void @llvm.lifetime.end.p0(i64 4, ptr %16) #3
  call void @llvm.lifetime.end.p0(i64 4, ptr %15) #3
  ret void
}